Certificate:
    Data:
        Version: 3 (0x2)
        Serial Number: 5 (0x5)
    Signature Algorithm: sha256WithRSAEncryption
        Issuer: C=AU, ST=Some-State, O=Internet Widgits Pty Ltd, CN=test CA
        Validity
            Not Before: Mar 19 19:07:50 2018 GMT
            Not After : Mar 19 19:07:50 2019 GMT
        Subject: CN=no email protection Extended Key Usage
        Subject Public Key Info:
            Public Key Algorithm: rsaEncryption
                Public-Key: (2048 bit)
                Modulus:
                    00:9c:ee:0e:a6:44:96:38:8a:55:9d:12:94:48:d5:
                    35:dd:05:ce:a0:d1:e9:5f:38:1f:38:de:e3:a1:2c:
                    b4:c0:91:53:91:aa:67:88:77:a0:96:cc:35:2d:35:
                    49:6b:5a:38:19:78:3c:fc:c3:5e:1a:88:f0:18:c3:
                    1b:fd:e0:ab:34:4c:97:28:38:54:7c:71:1e:a5:46:
                    37:b2:37:b0:14:d2:00:8e:0b:05:b9:ac:68:3c:fd:
                    62:b0:62:db:fa:eb:e3:f5:bf:7c:58:c6:ec:7c:c9:
                    bd:39:75:59:95:e0:58:24:2a:86:3e:16:85:ed:4c:
                    5d:38:4c:b5:77:77:ed:56:97:01:44:12:98:f6:1e:
                    64:27:71:47:8d:93:9d:51:33:0c:6b:0d:ca:2a:66:
                    bc:4c:a8:50:b0:1b:9d:1b:41:a5:59:70:da:cd:8a:
                    b2:c0:4c:f8:cf:29:2c:82:85:be:ca:84:2c:e0:8d:
                    9f:f4:e8:2c:c6:3b:42:4d:20:09:0c:a0:4a:77:65:
                    64:d2:b2:69:25:b6:32:ff:99:5f:db:f1:24:9f:91:
                    fd:7f:ad:e7:77:c0:65:f5:d1:be:5e:2a:99:6f:5f:
                    92:ed:44:de:2a:f8:19:9c:53:8e:23:da:b4:bb:8e:
                    72:60:92:fc:d4:72:c3:f1:2b:fb:65:c4:ef:3a:37:
                    30:3f
                Exponent: 65537 (0x10001)
        X509v3 extensions:
            X509v3 Basic Constraints: 
                CA:FALSE
            X509v3 Extended Key Usage: 
                Time Stamping
    Signature Algorithm: sha256WithRSAEncryption
         ac:2b:ea:67:1d:87:55:09:20:20:bf:cd:5b:5e:14:3c:56:8f:
         dc:f8:15:ce:0e:19:4a:af:03:41:25:ca:05:d2:f6:6c:67:56:
         3e:69:0c:a6:f2:1e:b0:54:80:51:8f:f2:ef:07:ab:53:7f:5e:
         ec:7f:28:17:10:88:c1:bd:92:a2:13:ee:08:2c:e8:5b:ec:68:
         f3:54:a8:a6:74:d9:0d:8b:72:38:70:57:d8:22:e3:a3:4b:c5:
         b2:1e:43:9a:5b:6c:a0:e8:01:be:12:37:0f:5c:94:a9:d9:ea:
         32:38:98:ee:1f:02:55:e8:3a:bd:90:b3:2d:2d:39:88:09:5f:
         21:d6:b6:df:9f:bc:f7:cb:06:91:4a:64:9f:d3:d0:71:6d:31:
         85:ff:b9:63:9f:d4:16:ca:5c:22:3b:0e:4e:07:9d:c2:d7:32:
         92:f8:4e:6a:3c:39:f2:0b:78:ab:35:35:fd:2a:ae:d0:8f:4a:
         9a:6f:a2:28:23:a9:55:f5:96:83:33:75:6c:f4:f8:e2:5c:c4:
         97:c9:18:c7:e7:91:d6:2b:d0:44:8c:36:3d:35:a4:8e:36:80:
         98:9f:ed:ed:f4:91:c2:b9:cc:85:0c:cd:2c:2a:0a:11:0a:e6:
         be:49:c6:c9:1c:6f:d6:49:fe:9c:d7:5c:f6:44:0e:4e:06:f3:
         c1:51:c9:9a
-----BEGIN CERTIFICATE-----
MIIDJTCCAg2gAwIBAgIBBTANBgkqhkiG9w0BAQsFADBXMQswCQYDVQQGEwJBVTET
MBEGA1UECAwKU29tZS1TdGF0ZTEhMB8GA1UECgwYSW50ZXJuZXQgV2lkZ2l0cyBQ
dHkgTHRkMRAwDgYDVQQDDAd0ZXN0IENBMB4XDTE4MDMxOTE5MDc1MFoXDTE5MDMx
OTE5MDc1MFowMTEvMC0GA1UEAwwmbm8gZW1haWwgcHJvdGVjdGlvbiBFeHRlbmRl
ZCBLZXkgVXNhZ2UwggEiMA0GCSqGSIb3DQEBAQUAA4IBDwAwggEKAoIBAQCc7g6m
RJY4ilWdEpRI1TXdBc6g0elfOB843uOhLLTAkVORqmeId6CWzDUtNUlrWjgZeDz8
w14aiPAYwxv94Ks0TJcoOFR8cR6lRjeyN7AU0gCOCwW5rGg8/WKwYtv66+P1v3xY
xux8yb05dVmV4FgkKoY+FoXtTF04TLV3d+1WlwFEEpj2HmQncUeNk51RMwxrDcoq
ZrxMqFCwG50bQaVZcNrNirLATPjPKSyChb7KhCzgjZ/06CzGO0JNIAkMoEp3ZWTS
smkltjL/mV/b8SSfkf1/red3wGX10b5eKplvX5LtRN4q+BmcU44j2rS7jnJgkvzU
csPxK/tlxO86NzA/AgMBAAGjIjAgMAkGA1UdEwQCMAAwEwYDVR0lBAwwCgYIKwYB
BQUHAwgwDQYJKoZIhvcNAQELBQADggEBAKwr6mcdh1UJICC/zVteFDxWj9z4Fc4O
GUqvA0ElygXS9mxnVj5pDKbyHrBUgFGP8u8Hq1N/Xux/KBcQiMG9kqIT7ggs6Fvs
aPNUqKZ02Q2LcjhwV9gi46NLxbIeQ5pbbKDoAb4SNw9clKnZ6jI4mO4fAlXoOr2Q
sy0tOYgJXyHWtt+fvPfLBpFKZJ/T0HFtMYX/uWOf1BbKXCI7Dk4HncLXMpL4Tmo8
OfILeKs1Nf0qrtCPSppvoigjqVX1loMzdWz0+OJcxJfJGMfnkdYr0ESMNj01pI42
gJif7e30kcK5zIUMzSwqChEK5r5Jxskcb9ZJ/pzXXPZEDk4G88FRyZo=
-----END CERTIFICATE-----
