Certificate:
    Data:
        Version: 3 (0x2)
        Serial Number: 6 (0x6)
    Signature Algorithm: sha256WithRSAEncryption
        Issuer: C=AU, ST=Some-State, O=Internet Widgits Pty Ltd, CN=test CA
        Validity
            Not Before: Mar 21 22:31:43 2018 GMT
            Not After : Mar 21 22:31:43 2019 GMT
        Subject: CN=no digitalSignature bit
        Subject Public Key Info:
            Public Key Algorithm: rsaEncryption
                Public-Key: (2048 bit)
                Modulus:
                    00:9c:ee:0e:a6:44:96:38:8a:55:9d:12:94:48:d5:
                    35:dd:05:ce:a0:d1:e9:5f:38:1f:38:de:e3:a1:2c:
                    b4:c0:91:53:91:aa:67:88:77:a0:96:cc:35:2d:35:
                    49:6b:5a:38:19:78:3c:fc:c3:5e:1a:88:f0:18:c3:
                    1b:fd:e0:ab:34:4c:97:28:38:54:7c:71:1e:a5:46:
                    37:b2:37:b0:14:d2:00:8e:0b:05:b9:ac:68:3c:fd:
                    62:b0:62:db:fa:eb:e3:f5:bf:7c:58:c6:ec:7c:c9:
                    bd:39:75:59:95:e0:58:24:2a:86:3e:16:85:ed:4c:
                    5d:38:4c:b5:77:77:ed:56:97:01:44:12:98:f6:1e:
                    64:27:71:47:8d:93:9d:51:33:0c:6b:0d:ca:2a:66:
                    bc:4c:a8:50:b0:1b:9d:1b:41:a5:59:70:da:cd:8a:
                    b2:c0:4c:f8:cf:29:2c:82:85:be:ca:84:2c:e0:8d:
                    9f:f4:e8:2c:c6:3b:42:4d:20:09:0c:a0:4a:77:65:
                    64:d2:b2:69:25:b6:32:ff:99:5f:db:f1:24:9f:91:
                    fd:7f:ad:e7:77:c0:65:f5:d1:be:5e:2a:99:6f:5f:
                    92:ed:44:de:2a:f8:19:9c:53:8e:23:da:b4:bb:8e:
                    72:60:92:fc:d4:72:c3:f1:2b:fb:65:c4:ef:3a:37:
                    30:3f
                Exponent: 65537 (0x10001)
        X509v3 extensions:
            X509v3 Basic Constraints: 
                CA:FALSE
            X509v3 Key Usage: 
                Non Repudiation, Key Encipherment
    Signature Algorithm: sha256WithRSAEncryption
         3e:80:3f:9c:59:14:e9:aa:8b:d7:e2:ef:17:e8:02:1c:2f:ae:
         cc:26:65:11:a2:73:37:5e:0a:15:2c:5d:ce:1b:5a:7a:11:64:
         6e:5a:23:35:4f:24:66:ad:69:b5:96:2b:f1:6d:d5:53:62:e0:
         5f:a7:93:d6:04:f4:30:6a:cb:59:1b:a5:dc:e3:f5:1d:a0:8f:
         fe:62:54:17:68:7f:79:eb:6e:31:06:78:51:55:cc:12:d3:71:
         bd:84:73:02:94:68:1b:46:73:0e:cb:26:91:8b:49:09:e7:9d:
         9d:dd:aa:7a:4f:e2:e5:68:31:2f:da:64:1a:eb:e8:f6:09:8e:
         93:50:27:3d:85:f6:ba:9e:2d:95:26:0a:36:aa:c8:6a:e2:da:
         6e:ff:2b:db:3c:44:b1:25:6c:1b:5e:11:d2:40:0a:db:fd:1f:
         ec:04:8c:5b:fd:a8:6e:80:c2:6e:e0:04:a1:ba:38:9e:fc:6e:
         09:c1:78:62:52:bf:38:c5:77:6b:9c:38:96:47:d6:13:66:dc:
         90:da:10:b5:05:42:0d:57:21:ab:30:ea:ea:22:40:54:08:a2:
         5c:87:df:1e:e2:4f:81:a6:3f:36:5c:b3:9d:c5:ea:fb:4b:ed:
         6d:3c:48:bc:85:7f:82:9a:eb:3d:30:c0:17:ce:37:d6:e4:a6:
         76:5b:8c:fc
-----BEGIN CERTIFICATE-----
MIIDDjCCAfagAwIBAgIBBjANBgkqhkiG9w0BAQsFADBXMQswCQYDVQQGEwJBVTET
MBEGA1UECAwKU29tZS1TdGF0ZTEhMB8GA1UECgwYSW50ZXJuZXQgV2lkZ2l0cyBQ
dHkgTHRkMRAwDgYDVQQDDAd0ZXN0IENBMB4XDTE4MDMyMTIyMzE0M1oXDTE5MDMy
MTIyMzE0M1owIjEgMB4GA1UEAwwXbm8gZGlnaXRhbFNpZ25hdHVyZSBiaXQwggEi
MA0GCSqGSIb3DQEBAQUAA4IBDwAwggEKAoIBAQCc7g6mRJY4ilWdEpRI1TXdBc6g
0elfOB843uOhLLTAkVORqmeId6CWzDUtNUlrWjgZeDz8w14aiPAYwxv94Ks0TJco
OFR8cR6lRjeyN7AU0gCOCwW5rGg8/WKwYtv66+P1v3xYxux8yb05dVmV4FgkKoY+
FoXtTF04TLV3d+1WlwFEEpj2HmQncUeNk51RMwxrDcoqZrxMqFCwG50bQaVZcNrN
irLATPjPKSyChb7KhCzgjZ/06CzGO0JNIAkMoEp3ZWTSsmkltjL/mV/b8SSfkf1/
red3wGX10b5eKplvX5LtRN4q+BmcU44j2rS7jnJgkvzUcsPxK/tlxO86NzA/AgMB
AAGjGjAYMAkGA1UdEwQCMAAwCwYDVR0PBAQDAgVgMA0GCSqGSIb3DQEBCwUAA4IB
AQA+gD+cWRTpqovX4u8X6AIcL67MJmURonM3XgoVLF3OG1p6EWRuWiM1TyRmrWm1
livxbdVTYuBfp5PWBPQwastZG6Xc4/UdoI/+YlQXaH95624xBnhRVcwS03G9hHMC
lGgbRnMOyyaRi0kJ552d3ap6T+LlaDEv2mQa6+j2CY6TUCc9hfa6ni2VJgo2qshq
4tpu/yvbPESxJWwbXhHSQArb/R/sBIxb/ahugMJu4AShujie/G4JwXhiUr84xXdr
nDiWR9YTZtyQ2hC1BUINVyGrMOrqIkBUCKJch98e4k+Bpj82XLOdxer7S+1tPEi8
hX+Cmus9MMAXzjfW5KZ2W4z8
-----END CERTIFICATE-----
