Certificate:
    Data:
        Version: 3 (0x2)
        Serial Number: 1 (0x1)
    Signature Algorithm: sha256WithRSAEncryption
        Issuer: CN=My Common Name
        Validity
            Not Before: Apr 29 07:34:33 2018 GMT
            Not After : Apr  5 07:34:33 2118 GMT
        Subject: CN=No email protection KU
        Subject Public Key Info:
            Public Key Algorithm: rsaEncryption
                Public-Key: (2048 bit)
                Modulus:
                    00:9c:ee:0e:a6:44:96:38:8a:55:9d:12:94:48:d5:
                    35:dd:05:ce:a0:d1:e9:5f:38:1f:38:de:e3:a1:2c:
                    b4:c0:91:53:91:aa:67:88:77:a0:96:cc:35:2d:35:
                    49:6b:5a:38:19:78:3c:fc:c3:5e:1a:88:f0:18:c3:
                    1b:fd:e0:ab:34:4c:97:28:38:54:7c:71:1e:a5:46:
                    37:b2:37:b0:14:d2:00:8e:0b:05:b9:ac:68:3c:fd:
                    62:b0:62:db:fa:eb:e3:f5:bf:7c:58:c6:ec:7c:c9:
                    bd:39:75:59:95:e0:58:24:2a:86:3e:16:85:ed:4c:
                    5d:38:4c:b5:77:77:ed:56:97:01:44:12:98:f6:1e:
                    64:27:71:47:8d:93:9d:51:33:0c:6b:0d:ca:2a:66:
                    bc:4c:a8:50:b0:1b:9d:1b:41:a5:59:70:da:cd:8a:
                    b2:c0:4c:f8:cf:29:2c:82:85:be:ca:84:2c:e0:8d:
                    9f:f4:e8:2c:c6:3b:42:4d:20:09:0c:a0:4a:77:65:
                    64:d2:b2:69:25:b6:32:ff:99:5f:db:f1:24:9f:91:
                    fd:7f:ad:e7:77:c0:65:f5:d1:be:5e:2a:99:6f:5f:
                    92:ed:44:de:2a:f8:19:9c:53:8e:23:da:b4:bb:8e:
                    72:60:92:fc:d4:72:c3:f1:2b:fb:65:c4:ef:3a:37:
                    30:3f
                Exponent: 65537 (0x10001)
        X509v3 extensions:
            X509v3 Basic Constraints: 
                CA:FALSE
            X509v3 Extended Key Usage: 
                Time Stamping
    Signature Algorithm: sha256WithRSAEncryption
         98:bc:6a:76:86:97:1d:9f:11:1b:60:b8:6e:2c:0d:fc:2f:56:
         e6:ac:5a:07:f7:51:09:12:2a:60:5c:39:1d:4a:3f:48:58:d9:
         3d:f0:a4:e7:50:56:a1:01:71:dd:74:2f:6e:42:31:30:18:a1:
         62:b1:20:bc:43:1a:e1:c2:96:2a:16:5c:e1:f0:fb:c7:86:28:
         e0:23:6c:b8:ef:3c:af:d8:41:95:70:8e:e4:34:52:58:12:c6:
         3f:80:d6:68:23:1d:e3:fd:cb:34:25:f8:fa:37:5b:69:2c:54:
         3d:0d:21:d1:5e:dd:32:3a:15:e4:3d:99:5b:75:13:66:d4:50:
         08:7c:9b:b8:29:a8:55:c0:5e:88:82:82:e3:d0:08:6e:ed:ca:
         d2:8a:98:f4:78:98:bd:ce:2a:34:20:0f:b7:9f:06:82:69:fd:
         a4:cd:af:21:74:5e:73:58:d3:1c:3a:04:5f:05:57:e9:d2:b2:
         33:c9:fb:f3:3c:45:32:63:f3:28:b3:db:b7:db:81:1a:dc:6d:
         2a:56:1f:30:5d:ca:fd:4c:2c:04:d3:2f:7c:92:0f:89:68:08:
         18:69:36:59:db:03:95:e7:36:8e:72:a1:a9:0c:b1:2e:1c:7a:
         00:a6:49:df:82:48:11:05:a8:1f:cd:af:ea:f9:cf:4f:69:39:
         4a:35:03:74
-----BEGIN CERTIFICATE-----
MIIC2TCCAcGgAwIBAgIBATANBgkqhkiG9w0BAQsFADAZMRcwFQYDVQQDDA5NeSBD
b21tb24gTmFtZTAgFw0xODA0MjkwNzM0MzNaGA8yMTE4MDQwNTA3MzQzM1owITEf
MB0GA1UEAwwWTm8gZW1haWwgcHJvdGVjdGlvbiBLVTCCASIwDQYJKoZIhvcNAQEB
BQADggEPADCCAQoCggEBAJzuDqZEljiKVZ0SlEjVNd0FzqDR6V84Hzje46EstMCR
U5GqZ4h3oJbMNS01SWtaOBl4PPzDXhqI8BjDG/3gqzRMlyg4VHxxHqVGN7I3sBTS
AI4LBbmsaDz9YrBi2/rr4/W/fFjG7HzJvTl1WZXgWCQqhj4Whe1MXThMtXd37VaX
AUQSmPYeZCdxR42TnVEzDGsNyipmvEyoULAbnRtBpVlw2s2KssBM+M8pLIKFvsqE
LOCNn/ToLMY7Qk0gCQygSndlZNKyaSW2Mv+ZX9vxJJ+R/X+t53fAZfXRvl4qmW9f
ku1E3ir4GZxTjiPatLuOcmCS/NRyw/Er+2XE7zo3MD8CAwEAAaMiMCAwCQYDVR0T
BAIwADATBgNVHSUEDDAKBggrBgEFBQcDCDANBgkqhkiG9w0BAQsFAAOCAQEAmLxq
doaXHZ8RG2C4biwN/C9W5qxaB/dRCRIqYFw5HUo/SFjZPfCk51BWoQFx3XQvbkIx
MBihYrEgvEMa4cKWKhZc4fD7x4Yo4CNsuO88r9hBlXCO5DRSWBLGP4DWaCMd4/3L
NCX4+jdbaSxUPQ0h0V7dMjoV5D2ZW3UTZtRQCHybuCmoVcBeiIKC49AIbu3K0oqY
9HiYvc4qNCAPt58Ggmn9pM2vIXRec1jTHDoEXwVX6dKyM8n78zxFMmPzKLPbt9uB
GtxtKlYfMF3K/UwsBNMvfJIPiWgIGGk2WdsDlec2jnKhqQyxLhx6AKZJ34JIEQWo
H82v6vnPT2k5SjUDdA==
-----END CERTIFICATE-----
