Certificate:
    Data:
        Version: 3 (0x2)
        Serial Number: 3 (0x3)
    Signature Algorithm: sha256WithRSAEncryption
        Issuer: CN=My Common Name
        Validity
            Not Before: Apr 29 07:58:32 2018 GMT
            Not After : Apr  5 07:58:32 2118 GMT
        Subject: CN=No any KU field
        Subject Public Key Info:
            Public Key Algorithm: rsaEncryption
                Public-Key: (2048 bit)
                Modulus:
                    00:9c:ee:0e:a6:44:96:38:8a:55:9d:12:94:48:d5:
                    35:dd:05:ce:a0:d1:e9:5f:38:1f:38:de:e3:a1:2c:
                    b4:c0:91:53:91:aa:67:88:77:a0:96:cc:35:2d:35:
                    49:6b:5a:38:19:78:3c:fc:c3:5e:1a:88:f0:18:c3:
                    1b:fd:e0:ab:34:4c:97:28:38:54:7c:71:1e:a5:46:
                    37:b2:37:b0:14:d2:00:8e:0b:05:b9:ac:68:3c:fd:
                    62:b0:62:db:fa:eb:e3:f5:bf:7c:58:c6:ec:7c:c9:
                    bd:39:75:59:95:e0:58:24:2a:86:3e:16:85:ed:4c:
                    5d:38:4c:b5:77:77:ed:56:97:01:44:12:98:f6:1e:
                    64:27:71:47:8d:93:9d:51:33:0c:6b:0d:ca:2a:66:
                    bc:4c:a8:50:b0:1b:9d:1b:41:a5:59:70:da:cd:8a:
                    b2:c0:4c:f8:cf:29:2c:82:85:be:ca:84:2c:e0:8d:
                    9f:f4:e8:2c:c6:3b:42:4d:20:09:0c:a0:4a:77:65:
                    64:d2:b2:69:25:b6:32:ff:99:5f:db:f1:24:9f:91:
                    fd:7f:ad:e7:77:c0:65:f5:d1:be:5e:2a:99:6f:5f:
                    92:ed:44:de:2a:f8:19:9c:53:8e:23:da:b4:bb:8e:
                    72:60:92:fc:d4:72:c3:f1:2b:fb:65:c4:ef:3a:37:
                    30:3f
                Exponent: 65537 (0x10001)
    Signature Algorithm: sha256WithRSAEncryption
         22:2d:41:6d:d3:e1:e7:aa:a8:7d:e5:af:58:51:a6:44:8b:a5:
         45:cc:a2:d6:14:83:c8:20:5f:e5:5b:d3:70:d5:99:0c:69:02:
         09:6e:ae:58:12:b7:b7:0b:cb:31:f6:3b:4f:c4:cb:82:de:14:
         14:4d:c1:b1:81:91:ca:1a:38:9f:7d:6c:88:da:31:98:72:11:
         56:88:90:47:76:ac:5d:b8:3f:0b:78:6a:e6:04:a8:0c:82:79:
         1e:52:7b:37:ed:d4:f8:3b:70:7f:6f:0b:0f:f8:b5:86:36:91:
         b6:91:99:7e:08:65:62:e7:ec:a8:f7:e3:d4:4b:04:08:c5:e8:
         4c:7f:4d:7b:4e:bf:7f:3f:e2:5a:95:61:9f:36:73:68:c9:a4:
         13:cd:a2:51:fd:f1:46:d9:29:5c:12:8c:a2:1a:78:92:a0:ad:
         6b:02:39:32:1d:d4:e6:7f:53:95:99:52:fc:23:9a:81:24:3f:
         b0:15:8e:9f:66:45:df:6d:b6:64:e9:3f:ea:e6:1b:05:02:70:
         e1:21:02:aa:66:a2:46:84:34:22:82:df:34:c5:36:b2:e7:10:
         7f:d2:1a:df:64:18:aa:cc:9e:47:af:1e:66:1f:6e:dd:be:5c:
         0b:ca:d0:07:40:98:20:d5:af:78:f3:e2:b0:5f:c9:d7:c4:40:
         c6:05:4b:33
-----BEGIN CERTIFICATE-----
MIICrjCCAZagAwIBAgIBAzANBgkqhkiG9w0BAQsFADAZMRcwFQYDVQQDDA5NeSBD
b21tb24gTmFtZTAgFw0xODA0MjkwNzU4MzJaGA8yMTE4MDQwNTA3NTgzMlowGjEY
MBYGA1UEAwwPTm8gYW55IEtVIGZpZWxkMIIBIjANBgkqhkiG9w0BAQEFAAOCAQ8A
MIIBCgKCAQEAnO4OpkSWOIpVnRKUSNU13QXOoNHpXzgfON7joSy0wJFTkapniHeg
lsw1LTVJa1o4GXg8/MNeGojwGMMb/eCrNEyXKDhUfHEepUY3sjewFNIAjgsFuaxo
PP1isGLb+uvj9b98WMbsfMm9OXVZleBYJCqGPhaF7UxdOEy1d3ftVpcBRBKY9h5k
J3FHjZOdUTMMaw3KKma8TKhQsBudG0GlWXDazYqywEz4zyksgoW+yoQs4I2f9Ogs
xjtCTSAJDKBKd2Vk0rJpJbYy/5lf2/Ekn5H9f63nd8Bl9dG+XiqZb1+S7UTeKvgZ
nFOOI9q0u45yYJL81HLD8Sv7ZcTvOjcwPwIDAQABMA0GCSqGSIb3DQEBCwUAA4IB
AQAiLUFt0+Hnqqh95a9YUaZEi6VFzKLWFIPIIF/lW9Nw1ZkMaQIJbq5YEre3C8sx
9jtPxMuC3hQUTcGxgZHKGjiffWyI2jGYchFWiJBHdqxduD8LeGrmBKgMgnkeUns3
7dT4O3B/bwsP+LWGNpG2kZl+CGVi5+yo9+PUSwQIxehMf017Tr9/P+JalWGfNnNo
yaQTzaJR/fFG2SlcEoyiGniSoK1rAjkyHdTmf1OVmVL8I5qBJD+wFY6fZkXfbbZk
6T/q5hsFAnDhIQKqZqJGhDQigt80xTay5xB/0hrfZBiqzJ5Hrx5mH27dvlwLytAH
QJgg1a948+KwX8nXxEDGBUsz
-----END CERTIFICATE-----
