Certificate:
    Data:
        Version: 3 (0x2)
        Serial Number: 8 (0x8)
    Signature Algorithm: sha256WithRSAEncryption
        Issuer: C=AU, ST=Some-State, O=Internet Widgits Pty Ltd, CN=test CA
        Validity
            Not Before: Mar 22 20:29:49 2018 GMT
            Not After : Mar 22 20:29:49 2019 GMT
        Subject: CN=keyEncipherment in KeyUsage
        Subject Public Key Info:
            Public Key Algorithm: rsaEncryption
                Public-Key: (2048 bit)
                Modulus:
                    00:9c:ee:0e:a6:44:96:38:8a:55:9d:12:94:48:d5:
                    35:dd:05:ce:a0:d1:e9:5f:38:1f:38:de:e3:a1:2c:
                    b4:c0:91:53:91:aa:67:88:77:a0:96:cc:35:2d:35:
                    49:6b:5a:38:19:78:3c:fc:c3:5e:1a:88:f0:18:c3:
                    1b:fd:e0:ab:34:4c:97:28:38:54:7c:71:1e:a5:46:
                    37:b2:37:b0:14:d2:00:8e:0b:05:b9:ac:68:3c:fd:
                    62:b0:62:db:fa:eb:e3:f5:bf:7c:58:c6:ec:7c:c9:
                    bd:39:75:59:95:e0:58:24:2a:86:3e:16:85:ed:4c:
                    5d:38:4c:b5:77:77:ed:56:97:01:44:12:98:f6:1e:
                    64:27:71:47:8d:93:9d:51:33:0c:6b:0d:ca:2a:66:
                    bc:4c:a8:50:b0:1b:9d:1b:41:a5:59:70:da:cd:8a:
                    b2:c0:4c:f8:cf:29:2c:82:85:be:ca:84:2c:e0:8d:
                    9f:f4:e8:2c:c6:3b:42:4d:20:09:0c:a0:4a:77:65:
                    64:d2:b2:69:25:b6:32:ff:99:5f:db:f1:24:9f:91:
                    fd:7f:ad:e7:77:c0:65:f5:d1:be:5e:2a:99:6f:5f:
                    92:ed:44:de:2a:f8:19:9c:53:8e:23:da:b4:bb:8e:
                    72:60:92:fc:d4:72:c3:f1:2b:fb:65:c4:ef:3a:37:
                    30:3f
                Exponent: 65537 (0x10001)
        X509v3 extensions:
            X509v3 Basic Constraints: 
                CA:FALSE
            X509v3 Key Usage: 
                Key Encipherment
    Signature Algorithm: sha256WithRSAEncryption
         67:96:55:8f:1c:5b:df:ee:4b:58:87:80:27:20:f9:47:12:31:
         07:8b:58:24:f2:0e:33:cc:79:58:5a:23:fd:0a:e7:2a:35:22:
         28:ea:91:3c:c4:65:90:18:a3:ab:df:d4:38:d5:7d:7a:f7:bb:
         74:39:df:fe:87:42:bb:6d:f1:d1:a7:95:8d:e3:39:62:21:65:
         15:42:94:70:c3:f6:97:ee:8f:75:f9:af:a7:48:5e:ca:5d:33:
         58:72:fd:ec:08:ba:c2:87:6c:58:b9:e1:b2:18:3f:68:64:16:
         fa:7e:04:d4:de:98:f9:07:cd:49:94:d3:a9:f4:cf:9c:53:7f:
         8c:6c:0f:9e:25:dd:92:50:24:5c:23:68:c5:01:2a:10:67:46:
         2a:bc:04:ef:12:0a:ce:1d:d0:b6:57:fc:f0:b4:52:b2:62:0a:
         db:e2:bd:ed:78:47:d6:c4:26:b6:c1:46:c1:f1:f3:c5:0b:48:
         09:7f:18:a9:3b:ec:6d:66:ed:a3:a3:e5:5f:1e:0a:c8:30:06:
         5e:6c:94:53:73:51:a0:a1:20:a7:9a:c8:ba:cb:2e:a6:85:63:
         4f:18:c6:dd:54:f1:b5:f3:ec:06:f0:3f:85:5a:5f:0f:f7:41:
         66:72:77:c5:43:cc:f1:41:d5:cc:13:04:b6:bc:d9:eb:ba:1a:
         7c:45:f3:5b
-----BEGIN CERTIFICATE-----
MIIDEjCCAfqgAwIBAgIBCDANBgkqhkiG9w0BAQsFADBXMQswCQYDVQQGEwJBVTET
MBEGA1UECAwKU29tZS1TdGF0ZTEhMB8GA1UECgwYSW50ZXJuZXQgV2lkZ2l0cyBQ
dHkgTHRkMRAwDgYDVQQDDAd0ZXN0IENBMB4XDTE4MDMyMjIwMjk0OVoXDTE5MDMy
MjIwMjk0OVowJjEkMCIGA1UEAwwba2V5RW5jaXBoZXJtZW50IGluIEtleVVzYWdl
MIIBIjANBgkqhkiG9w0BAQEFAAOCAQ8AMIIBCgKCAQEAnO4OpkSWOIpVnRKUSNU1
3QXOoNHpXzgfON7joSy0wJFTkapniHeglsw1LTVJa1o4GXg8/MNeGojwGMMb/eCr
NEyXKDhUfHEepUY3sjewFNIAjgsFuaxoPP1isGLb+uvj9b98WMbsfMm9OXVZleBY
JCqGPhaF7UxdOEy1d3ftVpcBRBKY9h5kJ3FHjZOdUTMMaw3KKma8TKhQsBudG0Gl
WXDazYqywEz4zyksgoW+yoQs4I2f9OgsxjtCTSAJDKBKd2Vk0rJpJbYy/5lf2/Ek
n5H9f63nd8Bl9dG+XiqZb1+S7UTeKvgZnFOOI9q0u45yYJL81HLD8Sv7ZcTvOjcw
PwIDAQABoxowGDAJBgNVHRMEAjAAMAsGA1UdDwQEAwIFIDANBgkqhkiG9w0BAQsF
AAOCAQEAZ5ZVjxxb3+5LWIeAJyD5RxIxB4tYJPIOM8x5WFoj/QrnKjUiKOqRPMRl
kBijq9/UONV9eve7dDnf/odCu23x0aeVjeM5YiFlFUKUcMP2l+6Pdfmvp0heyl0z
WHL97Ai6wodsWLnhshg/aGQW+n4E1N6Y+QfNSZTTqfTPnFN/jGwPniXdklAkXCNo
xQEqEGdGKrwE7xIKzh3Qtlf88LRSsmIK2+K97XhH1sQmtsFGwfHzxQtICX8YqTvs
bWbto6PlXx4KyDAGXmyUU3NRoKEgp5rIussupoVjTxjG3VTxtfPsBvA/hVpfD/dB
ZnJ3xUPM8UHVzBMEtrzZ67oafEXzWw==
-----END CERTIFICATE-----
