Certificate:
    Data:
        Version: 3 (0x2)
        Serial Number: 2 (0x2)
    Signature Algorithm: sha256WithRSAEncryption
        Issuer: CN=My Common Name
        Validity
            Not Before: Apr 29 07:46:38 2018 GMT
            Not After : Apr  5 07:46:38 2118 GMT
        Subject: CN=keyEncipherment in KeyUsage
        Subject Public Key Info:
            Public Key Algorithm: rsaEncryption
                Public-Key: (2048 bit)
                Modulus:
                    00:9c:ee:0e:a6:44:96:38:8a:55:9d:12:94:48:d5:
                    35:dd:05:ce:a0:d1:e9:5f:38:1f:38:de:e3:a1:2c:
                    b4:c0:91:53:91:aa:67:88:77:a0:96:cc:35:2d:35:
                    49:6b:5a:38:19:78:3c:fc:c3:5e:1a:88:f0:18:c3:
                    1b:fd:e0:ab:34:4c:97:28:38:54:7c:71:1e:a5:46:
                    37:b2:37:b0:14:d2:00:8e:0b:05:b9:ac:68:3c:fd:
                    62:b0:62:db:fa:eb:e3:f5:bf:7c:58:c6:ec:7c:c9:
                    bd:39:75:59:95:e0:58:24:2a:86:3e:16:85:ed:4c:
                    5d:38:4c:b5:77:77:ed:56:97:01:44:12:98:f6:1e:
                    64:27:71:47:8d:93:9d:51:33:0c:6b:0d:ca:2a:66:
                    bc:4c:a8:50:b0:1b:9d:1b:41:a5:59:70:da:cd:8a:
                    b2:c0:4c:f8:cf:29:2c:82:85:be:ca:84:2c:e0:8d:
                    9f:f4:e8:2c:c6:3b:42:4d:20:09:0c:a0:4a:77:65:
                    64:d2:b2:69:25:b6:32:ff:99:5f:db:f1:24:9f:91:
                    fd:7f:ad:e7:77:c0:65:f5:d1:be:5e:2a:99:6f:5f:
                    92:ed:44:de:2a:f8:19:9c:53:8e:23:da:b4:bb:8e:
                    72:60:92:fc:d4:72:c3:f1:2b:fb:65:c4:ef:3a:37:
                    30:3f
                Exponent: 65537 (0x10001)
        X509v3 extensions:
            X509v3 Basic Constraints: 
                CA:FALSE
            X509v3 Key Usage: 
                Key Encipherment
    Signature Algorithm: sha256WithRSAEncryption
         46:be:e7:07:28:7a:71:a1:91:4d:3e:5a:b5:01:be:25:d4:72:
         22:7a:12:aa:62:f7:ee:5a:af:c0:f7:2e:2d:f9:b6:38:0d:dd:
         87:78:c0:5b:c8:5f:76:0f:cb:1b:8b:be:13:9a:86:dc:73:93:
         00:bd:46:46:da:b0:dd:67:c5:ea:85:66:be:48:8e:4b:0b:35:
         d1:c4:bd:11:f9:a1:1b:4e:58:69:b6:42:16:6c:94:a7:4a:ea:
         42:0a:d7:54:93:4c:74:17:a1:2e:a7:d7:40:c0:ea:40:2e:37:
         5d:a3:5e:10:b4:41:7b:68:96:5d:da:a9:72:fc:81:5e:6c:c8:
         5c:0f:5f:e3:4b:6b:3e:46:fc:b8:96:98:8d:16:d9:c8:dc:6e:
         da:69:d3:7a:b4:b9:f2:1b:bd:a5:3b:40:27:e0:a3:64:81:ca:
         0d:b4:59:76:9b:68:93:23:6a:7c:51:10:65:2e:45:b8:92:0d:
         77:93:32:5b:48:4d:2f:fa:1b:bb:4c:eb:3d:d3:e6:de:63:96:
         37:76:45:bd:13:df:5e:59:5c:77:59:5e:9e:b3:b7:91:48:c8:
         7d:2b:b4:e5:10:8b:76:23:06:95:f8:4b:41:94:ee:c6:d7:34:
         a0:b3:8e:e7:31:7d:a1:53:ad:95:48:b3:0c:ad:82:a7:ae:3b:
         6a:eb:7a:9a
-----BEGIN CERTIFICATE-----
MIIC1jCCAb6gAwIBAgIBAjANBgkqhkiG9w0BAQsFADAZMRcwFQYDVQQDDA5NeSBD
b21tb24gTmFtZTAgFw0xODA0MjkwNzQ2MzhaGA8yMTE4MDQwNTA3NDYzOFowJjEk
MCIGA1UEAwwba2V5RW5jaXBoZXJtZW50IGluIEtleVVzYWdlMIIBIjANBgkqhkiG
9w0BAQEFAAOCAQ8AMIIBCgKCAQEAnO4OpkSWOIpVnRKUSNU13QXOoNHpXzgfON7j
oSy0wJFTkapniHeglsw1LTVJa1o4GXg8/MNeGojwGMMb/eCrNEyXKDhUfHEepUY3
sjewFNIAjgsFuaxoPP1isGLb+uvj9b98WMbsfMm9OXVZleBYJCqGPhaF7UxdOEy1
d3ftVpcBRBKY9h5kJ3FHjZOdUTMMaw3KKma8TKhQsBudG0GlWXDazYqywEz4zyks
goW+yoQs4I2f9OgsxjtCTSAJDKBKd2Vk0rJpJbYy/5lf2/Ekn5H9f63nd8Bl9dG+
XiqZb1+S7UTeKvgZnFOOI9q0u45yYJL81HLD8Sv7ZcTvOjcwPwIDAQABoxowGDAJ
BgNVHRMEAjAAMAsGA1UdDwQEAwIFIDANBgkqhkiG9w0BAQsFAAOCAQEARr7nByh6
caGRTT5atQG+JdRyInoSqmL37lqvwPcuLfm2OA3dh3jAW8hfdg/LG4u+E5qG3HOT
AL1GRtqw3WfF6oVmvkiOSws10cS9EfmhG05YabZCFmyUp0rqQgrXVJNMdBehLqfX
QMDqQC43XaNeELRBe2iWXdqpcvyBXmzIXA9f40trPkb8uJaYjRbZyNxu2mnTerS5
8hu9pTtAJ+CjZIHKDbRZdptokyNqfFEQZS5FuJINd5MyW0hNL/obu0zrPdPm3mOW
N3ZFvRPfXllcd1lenrO3kUjIfSu05RCLdiMGlfhLQZTuxtc0oLOO5zF9oVOtlUiz
DK2Cp647aut6mg==
-----END CERTIFICATE-----
